target datalayout = "e-m:e-p270:32:32-p271:32:32-p272:64:64-i64:64-i128:128-f80:128-n8:16:32:64-S128"
target triple = "x86_64-pc-linux-gnu"

%struct.sec_opts_s = type { i64, i64, i64, i64, i64 }

@duckdb_je_opt_hpa_sec_opts = external global %struct.sec_opts_s, align 8

; Function Attrs: nounwind uwtable
define internal i32 @opt_hpa_sec_max_bytes_ctl(ptr noundef %0, ptr noundef %1, i64 noundef %2, ptr noundef %3, ptr noundef %4, ptr noundef %5, i64 noundef %6) #0 {
  %8 = alloca i32, align 4
  %9 = alloca ptr, align 8
  %10 = alloca ptr, align 8
  %11 = alloca i64, align 8
  %12 = alloca ptr, align 8
  %13 = alloca ptr, align 8
  %14 = alloca ptr, align 8
  %15 = alloca i64, align 8
  %16 = alloca i32, align 4
  %17 = alloca i64, align 8
  %18 = alloca i64, align 8
  %19 = alloca i32, align 4
  store ptr %0, ptr %9, align 8, !tbaa !3
  store ptr %1, ptr %10, align 8, !tbaa !11
  store i64 %2, ptr %11, align 8, !tbaa !13
  store ptr %3, ptr %12, align 8, !tbaa !10
  store ptr %4, ptr %13, align 8, !tbaa !11
  store ptr %5, ptr %14, align 8, !tbaa !10
  store i64 %6, ptr %15, align 8, !tbaa !13
  call void @llvm.lifetime.start.p0(i64 4, ptr %16) #13
  call void @llvm.lifetime.start.p0(i64 8, ptr %17) #13
  br label %20

20:                                               ; preds = %7
  %21 = load ptr, ptr %14, align 8, !tbaa !10
  %22 = icmp ne ptr %21, null
  br i1 %22, label %26, label %23

23:                                               ; preds = %20
  %24 = load i64, ptr %15, align 8, !tbaa !13
  %25 = icmp ne i64 %24, 0
  br i1 %25, label %26, label %27

26:                                               ; preds = %23, %20
  store i32 1, ptr %16, align 4, !tbaa !19
  br label %62

27:                                               ; preds = %23
  br label %28

28:                                               ; preds = %27
  br label %29

29:                                               ; preds = %28
  %30 = load i64, ptr getelementptr inbounds nuw (%struct.sec_opts_s, ptr @duckdb_je_opt_hpa_sec_opts, i32 0, i32 2), align 8, !tbaa !225
  store i64 %30, ptr %17, align 8, !tbaa !13
  br label %31

31:                                               ; preds = %29
  %32 = load ptr, ptr %12, align 8, !tbaa !10
  %33 = icmp ne ptr %32, null
  br i1 %33, label %34, label %59

34:                                               ; preds = %31
  %35 = load ptr, ptr %13, align 8, !tbaa !11
  %36 = icmp ne ptr %35, null
  br i1 %36, label %37, label %59

37:                                               ; preds = %34
  %38 = load ptr, ptr %13, align 8, !tbaa !11
  %39 = load i64, ptr %38, align 8, !tbaa !13
  %40 = icmp ne i64 %39, 8
  br i1 %40, label %41, label %56

41:                                               ; preds = %37
  call void @llvm.lifetime.start.p0(i64 8, ptr %18) #13
  %42 = load ptr, ptr %13, align 8, !tbaa !11
  %43 = load i64, ptr %42, align 8, !tbaa !13
  %44 = icmp ule i64 8, %43
  br i1 %44, label %45, label %46

45:                                               ; preds = %41
  br label %49

46:                                               ; preds = %41
  %47 = load ptr, ptr %13, align 8, !tbaa !11
  %48 = load i64, ptr %47, align 8, !tbaa !13
  br label %49

49:                                               ; preds = %46, %45
  %50 = phi i64 [ 8, %45 ], [ %48, %46 ]
  store i64 %50, ptr %18, align 8, !tbaa !13
  %51 = load ptr, ptr %12, align 8, !tbaa !10
  %52 = load i64, ptr %18, align 8, !tbaa !13
  call void @llvm.memcpy.p0.p0.i64(ptr align 1 %51, ptr align 1 %17, i64 %52, i1 false)
  %53 = load i64, ptr %18, align 8, !tbaa !13
  %54 = load ptr, ptr %13, align 8, !tbaa !11
  store i64 %53, ptr %54, align 8, !tbaa !13
  store i32 22, ptr %16, align 4, !tbaa !19
  store i32 4, ptr %19, align 4
  call void @llvm.lifetime.end.p0(i64 8, ptr %18) #13
  %55 = load i32, ptr %19, align 4
  switch i32 %55, label %64 [
    i32 4, label %62
  ]

56:                                               ; preds = %37
  %57 = load i64, ptr %17, align 8, !tbaa !13
  %58 = load ptr, ptr %12, align 8, !tbaa !10
  store i64 %57, ptr %58, align 8, !tbaa !13
  br label %59

59:                                               ; preds = %56, %34, %31
  br label %60

60:                                               ; preds = %59
  br label %61

61:                                               ; preds = %60
  store i32 0, ptr %16, align 4, !tbaa !19
  br label %62

62:                                               ; preds = %61, %49, %26
  %63 = load i32, ptr %16, align 4, !tbaa !19
  store i32 %63, ptr %8, align 4
  store i32 1, ptr %19, align 4
  br label %64

64:                                               ; preds = %62, %49
  call void @llvm.lifetime.end.p0(i64 8, ptr %17) #13
  call void @llvm.lifetime.end.p0(i64 4, ptr %16) #13
  %65 = load i32, ptr %8, align 4
  ret i32 %65
}